; ModuleID = '22/162.c'
source_filename = "22/162.c"
target datalayout = "e-m:e-p270:32:32-p271:32:32-p272:64:64-i64:64-f80:128-n8:16:32:64-S128"
target triple = "x86_64-pc-linux-gnu"

@.str = private unnamed_addr constant [3 x i8] c"No\00", align 1
@.str.1 = private unnamed_addr constant [3 x i8] c"%d\00", align 1

; Function Attrs: noinline nounwind uwtable
define dso_local void @main() #0 {
  %1 = alloca i32, align 4
  %2 = alloca i32, align 4
  %3 = alloca [100 x i32], align 16
  %4 = alloca i32, align 4
  %5 = alloca i32, align 4
  %6 = alloca i32, align 4
  %7 = alloca i32, align 4
  %8 = alloca i32, align 4
  %9 = alloca [2000 x i8], align 16
  %10 = bitcast [100 x i32]* %3 to i8*
  call void @llvm.memset.p0i8.i64(i8* align 16 %10, i8 0, i64 400, i1 false)
  %11 = getelementptr inbounds [2000 x i8], [2000 x i8]* %9, i64 0, i64 0
  %12 = call i32 (i8*, ...) bitcast (i32 (...)* @gets to i32 (i8*, ...)*)(i8* %11)
  %13 = getelementptr inbounds [2000 x i8], [2000 x i8]* %9, i64 0, i64 0
  %14 = call i64 @strlen(i8* %13) #4
  %15 = trunc i64 %14 to i32
  store i32 %15, i32* %2, align 4
  store i32 1, i32* %4, align 4
  store i32 0, i32* %1, align 4
  br label %16

16:                                               ; preds = %47, %0
  %17 = load i32, i32* %1, align 4
  %18 = load i32, i32* %2, align 4
  %19 = icmp slt i32 %17, %18
  br i1 %19, label %20, label %50

20:                                               ; preds = %16
  %21 = load i32, i32* %1, align 4
  %22 = sext i32 %21 to i64
  %23 = getelementptr inbounds [2000 x i8], [2000 x i8]* %9, i64 0, i64 %22
  %24 = load i8, i8* %23, align 1
  %25 = sext i8 %24 to i32
  %26 = icmp ne i32 %25, 44
  br i1 %26, label %27, label %43

27:                                               ; preds = %20
  %28 = load i32, i32* %4, align 4
  %29 = sext i32 %28 to i64
  %30 = getelementptr inbounds [100 x i32], [100 x i32]* %3, i64 0, i64 %29
  %31 = load i32, i32* %30, align 4
  %32 = mul nsw i32 %31, 10
  %33 = load i32, i32* %1, align 4
  %34 = sext i32 %33 to i64
  %35 = getelementptr inbounds [2000 x i8], [2000 x i8]* %9, i64 0, i64 %34
  %36 = load i8, i8* %35, align 1
  %37 = sext i8 %36 to i32
  %38 = sub nsw i32 %37, 48
  %39 = add nsw i32 %32, %38
  %40 = load i32, i32* %4, align 4
  %41 = sext i32 %40 to i64
  %42 = getelementptr inbounds [100 x i32], [100 x i32]* %3, i64 0, i64 %41
  store i32 %39, i32* %42, align 4
  br label %46

43:                                               ; preds = %20
  %44 = load i32, i32* %4, align 4
  %45 = add nsw i32 %44, 1
  store i32 %45, i32* %4, align 4
  br label %46

46:                                               ; preds = %43, %27
  br label %47

47:                                               ; preds = %46
  %48 = load i32, i32* %1, align 4
  %49 = add nsw i32 %48, 1
  store i32 %49, i32* %1, align 4
  br label %16

50:                                               ; preds = %16
  %51 = load i32, i32* %4, align 4
  %52 = icmp eq i32 %51, 1
  br i1 %52, label %53, label %55

53:                                               ; preds = %50
  %54 = call i32 (i8*, ...) @printf(i8* getelementptr inbounds ([3 x i8], [3 x i8]* @.str, i64 0, i64 0))
  br label %133

55:                                               ; preds = %50
  store i32 1, i32* %5, align 4
  br label %56

56:                                               ; preds = %99, %55
  %57 = load i32, i32* %5, align 4
  %58 = load i32, i32* %4, align 4
  %59 = icmp sle i32 %57, %58
  br i1 %59, label %60, label %102

60:                                               ; preds = %56
  store i32 1, i32* %6, align 4
  br label %61

61:                                               ; preds = %95, %60
  %62 = load i32, i32* %6, align 4
  %63 = load i32, i32* %4, align 4
  %64 = icmp slt i32 %62, %63
  br i1 %64, label %65, label %98

65:                                               ; preds = %61
  %66 = load i32, i32* %6, align 4
  %67 = sext i32 %66 to i64
  %68 = getelementptr inbounds [100 x i32], [100 x i32]* %3, i64 0, i64 %67
  %69 = load i32, i32* %68, align 4
  %70 = load i32, i32* %6, align 4
  %71 = add nsw i32 %70, 1
  %72 = sext i32 %71 to i64
  %73 = getelementptr inbounds [100 x i32], [100 x i32]* %3, i64 0, i64 %72
  %74 = load i32, i32* %73, align 4
  %75 = icmp slt i32 %69, %74
  br i1 %75, label %76, label %94

76:                                               ; preds = %65
  %77 = load i32, i32* %6, align 4
  %78 = sext i32 %77 to i64
  %79 = getelementptr inbounds [100 x i32], [100 x i32]* %3, i64 0, i64 %78
  %80 = load i32, i32* %79, align 4
  store i32 %80, i32* %7, align 4
  %81 = load i32, i32* %6, align 4
  %82 = add nsw i32 %81, 1
  %83 = sext i32 %82 to i64
  %84 = getelementptr inbounds [100 x i32], [100 x i32]* %3, i64 0, i64 %83
  %85 = load i32, i32* %84, align 4
  %86 = load i32, i32* %6, align 4
  %87 = sext i32 %86 to i64
  %88 = getelementptr inbounds [100 x i32], [100 x i32]* %3, i64 0, i64 %87
  store i32 %85, i32* %88, align 4
  %89 = load i32, i32* %7, align 4
  %90 = load i32, i32* %6, align 4
  %91 = add nsw i32 %90, 1
  %92 = sext i32 %91 to i64
  %93 = getelementptr inbounds [100 x i32], [100 x i32]* %3, i64 0, i64 %92
  store i32 %89, i32* %93, align 4
  br label %94

94:                                               ; preds = %76, %65
  br label %95

95:                                               ; preds = %94
  %96 = load i32, i32* %6, align 4
  %97 = add nsw i32 %96, 1
  store i32 %97, i32* %6, align 4
  br label %61

98:                                               ; preds = %61
  br label %99

99:                                               ; preds = %98
  %100 = load i32, i32* %5, align 4
  %101 = add nsw i32 %100, 1
  store i32 %101, i32* %5, align 4
  br label %56

102:                                              ; preds = %56
  store i32 0, i32* %8, align 4
  store i32 2, i32* %5, align 4
  br label %103

103:                                              ; preds = %124, %102
  %104 = load i32, i32* %5, align 4
  %105 = load i32, i32* %4, align 4
  %106 = icmp sle i32 %104, %105
  br i1 %106, label %107, label %127

107:                                              ; preds = %103
  %108 = load i32, i32* %5, align 4
  %109 = sext i32 %108 to i64
  %110 = getelementptr inbounds [100 x i32], [100 x i32]* %3, i64 0, i64 %109
  %111 = load i32, i32* %110, align 4
  %112 = getelementptr inbounds [100 x i32], [100 x i32]* %3, i64 0, i64 1
  %113 = load i32, i32* %112, align 4
  %114 = icmp ne i32 %111, %113
  br i1 %114, label %115, label %123

115:                                              ; preds = %107
  %116 = load i32, i32* %5, align 4
  %117 = sext i32 %116 to i64
  %118 = getelementptr inbounds [100 x i32], [100 x i32]* %3, i64 0, i64 %117
  %119 = load i32, i32* %118, align 4
  %120 = call i32 (i8*, ...) @printf(i8* getelementptr inbounds ([3 x i8], [3 x i8]* @.str.1, i64 0, i64 0), i32 %119)
  %121 = load i32, i32* %8, align 4
  %122 = add nsw i32 %121, 1
  store i32 %122, i32* %8, align 4
  br label %127

123:                                              ; preds = %107
  br label %124

124:                                              ; preds = %123
  %125 = load i32, i32* %5, align 4
  %126 = add nsw i32 %125, 1
  store i32 %126, i32* %5, align 4
  br label %103

127:                                              ; preds = %115, %103
  %128 = load i32, i32* %8, align 4
  %129 = icmp eq i32 %128, 0
  br i1 %129, label %130, label %132

130:                                              ; preds = %127
  %131 = call i32 (i8*, ...) @printf(i8* getelementptr inbounds ([3 x i8], [3 x i8]* @.str, i64 0, i64 0))
  br label %132

132:                                              ; preds = %130, %127
  br label %133

133:                                              ; preds = %132, %53
  ret void
}

; Function Attrs: argmemonly nounwind willreturn
declare void @llvm.memset.p0i8.i64(i8* nocapture writeonly, i8, i64, i1 immarg) #1

declare dso_local i32 @gets(...) #2

; Function Attrs: nounwind readonly
declare dso_local i64 @strlen(i8*) #3

declare dso_local i32 @printf(i8*, ...) #2


!llvm.module.flags = !{!0}
!llvm.ident = !{!1}

!0 = !{i32 1, !"wchar_size", i32 4}
!1 = !{!"clang version 10.0.0-4ubuntu1 "}
